(dp1
S'output'
p2
S"<type 'exceptions.NameError'> global name 'membership' is not defined"
p3
sS'layer'
p4
S'/home/chaitanya/STUDY/web2py/applications/feedback/controllers/default.py'
p5
sS'code'
p6
S'# -*- coding: utf-8 -*-\n# this file is released under public domain and you can use without limitations\n\n#########################################################################\n## This is a sample controller\n## - index is the default action of any application\n## - user is required for authentication and authorization\n## - download is for downloading files uploaded in the db (does streaming)\n#########################################################################\n\n#@auth.requires_membership(\'admin\')\ndef display_users():\n    list = db(db.auth_user).select()\n    return locals()\n\ndef show_user():\n    user_id = request.args(0,cast=int)\n    user_detail = db(db.auth_user.id==user_id).select()\n    return locals()\n\ndef make_faculty():\n    user_id = request.args(0,cast=int)\n    #user = db.auth_user[user_id]\n    id = membership.insert(group_id=1,user_id=user_id)\n    #auth.add_membership(1,user_id)\n\ndef index():\n    """\n    example action using the internationalization operator T and flash\n    rendered by views/default/index.html or views/generic.html\n\n    if you need a simple wiki simply replace the two lines below with:\n    return auth.wiki()\n    """\n    response.flash = T("Hello World")\n    return dict(message=T(\'Welcome to web2py!\'))\n\ndef __add_user_membership(form):\n         #group_id = auth.id_group(role=form.vars.user_type)\n        # user_id = form.vars.id\n         auth.add_membership(2)\n\ndef user():\n    auth.settings.register_onaccept = __add_user_membership\n    """\n    exposes:\n    http://..../[app]/default/user/login\n    http://..../[app]/default/user/logout\n    http://..../[app]/default/user/register\n    http://..../[app]/default/user/profile\n    http://..../[app]/default/user/retrieve_password\n    http://..../[app]/default/user/change_password\n    http://..../[app]/default/user/bulk_register\n    use @auth.requires_login()\n        @auth.requires_membership(\'group name\')\n        @auth.requires_permission(\'read\',\'table name\',record_id)\n    to decorate functions that need access control\n    also notice there is http://..../[app]/appadmin/manage/auth to allow administrator to manage users\n    """\n    return dict(form=auth())\n\n\n@cache.action()\ndef download():\n    """\n    allows downloading of uploaded files\n    http://..../[app]/default/download/[filename]\n    """\n    return response.download(request, db)\n\n\ndef call():\n    """\n    exposes services. for example:\n    http://..../[app]/default/call/jsonrpc\n    decorate with @services.jsonrpc the functions to expose\n    supports xml, json, xmlrpc, jsonrpc, amfrpc, rss, csv\n    """\n    return service()\n\nresponse._vars=response._caller(make_faculty)\n'
p7
sS'snapshot'
p8
(dp9
sS'traceback'
p10
S'Traceback (most recent call last):\n  File "/home/chaitanya/STUDY/web2py/gluon/restricted.py", line 227, in restricted\n    exec ccode in environment\n  File "/home/chaitanya/STUDY/web2py/applications/feedback/controllers/default.py", line 81, in <module>\n  File "/home/chaitanya/STUDY/web2py/gluon/globals.py", line 412, in <lambda>\n    self._caller = lambda f: f()\n  File "/home/chaitanya/STUDY/web2py/applications/feedback/controllers/default.py", line 24, in make_faculty\n    id = membership.insert(group_id=1,user_id=user_id)\nNameError: global name \'membership\' is not defined\n'
p11
s.